
demo24.elf:     file format elf32-avr


Disassembly of section .text:

00000000 <__vectors>:
   0:	0c 94 50 00 	jmp	0xa0	; 0xa0 <__ctors_end>
   4:	0c 94 5a 00 	jmp	0xb4	; 0xb4 <__bad_interrupt>
   8:	0c 94 5a 00 	jmp	0xb4	; 0xb4 <__bad_interrupt>
   c:	0c 94 5a 00 	jmp	0xb4	; 0xb4 <__bad_interrupt>
  10:	0c 94 5a 00 	jmp	0xb4	; 0xb4 <__bad_interrupt>
  14:	0c 94 5a 00 	jmp	0xb4	; 0xb4 <__bad_interrupt>
  18:	0c 94 5a 00 	jmp	0xb4	; 0xb4 <__bad_interrupt>
  1c:	0c 94 5a 00 	jmp	0xb4	; 0xb4 <__bad_interrupt>
  20:	0c 94 5a 00 	jmp	0xb4	; 0xb4 <__bad_interrupt>
  24:	0c 94 5a 00 	jmp	0xb4	; 0xb4 <__bad_interrupt>
  28:	0c 94 5a 00 	jmp	0xb4	; 0xb4 <__bad_interrupt>
  2c:	0c 94 5a 00 	jmp	0xb4	; 0xb4 <__bad_interrupt>
  30:	0c 94 5a 00 	jmp	0xb4	; 0xb4 <__bad_interrupt>
  34:	0c 94 5a 00 	jmp	0xb4	; 0xb4 <__bad_interrupt>
  38:	0c 94 5a 00 	jmp	0xb4	; 0xb4 <__bad_interrupt>
  3c:	0c 94 5a 00 	jmp	0xb4	; 0xb4 <__bad_interrupt>
  40:	0c 94 5a 00 	jmp	0xb4	; 0xb4 <__bad_interrupt>
  44:	0c 94 5a 00 	jmp	0xb4	; 0xb4 <__bad_interrupt>
  48:	0c 94 5a 00 	jmp	0xb4	; 0xb4 <__bad_interrupt>
  4c:	0c 94 5a 00 	jmp	0xb4	; 0xb4 <__bad_interrupt>
  50:	0c 94 5a 00 	jmp	0xb4	; 0xb4 <__bad_interrupt>
  54:	0c 94 5a 00 	jmp	0xb4	; 0xb4 <__bad_interrupt>
  58:	0c 94 5a 00 	jmp	0xb4	; 0xb4 <__bad_interrupt>
  5c:	0c 94 5a 00 	jmp	0xb4	; 0xb4 <__bad_interrupt>
  60:	0c 94 5a 00 	jmp	0xb4	; 0xb4 <__bad_interrupt>
  64:	0c 94 5a 00 	jmp	0xb4	; 0xb4 <__bad_interrupt>
  68:	0c 94 5a 00 	jmp	0xb4	; 0xb4 <__bad_interrupt>
  6c:	0c 94 5a 00 	jmp	0xb4	; 0xb4 <__bad_interrupt>
  70:	0c 94 5a 00 	jmp	0xb4	; 0xb4 <__bad_interrupt>
  74:	0c 94 5a 00 	jmp	0xb4	; 0xb4 <__bad_interrupt>
  78:	0c 94 5a 00 	jmp	0xb4	; 0xb4 <__bad_interrupt>
  7c:	0c 94 5a 00 	jmp	0xb4	; 0xb4 <__bad_interrupt>
  80:	0c 94 5a 00 	jmp	0xb4	; 0xb4 <__bad_interrupt>
  84:	0c 94 5a 00 	jmp	0xb4	; 0xb4 <__bad_interrupt>
  88:	0c 94 5a 00 	jmp	0xb4	; 0xb4 <__bad_interrupt>
  8c:	0c 94 5a 00 	jmp	0xb4	; 0xb4 <__bad_interrupt>
  90:	0c 94 5a 00 	jmp	0xb4	; 0xb4 <__bad_interrupt>
  94:	0c 94 5a 00 	jmp	0xb4	; 0xb4 <__bad_interrupt>
  98:	0c 94 5a 00 	jmp	0xb4	; 0xb4 <__bad_interrupt>
  9c:	0c 94 5a 00 	jmp	0xb4	; 0xb4 <__bad_interrupt>

000000a0 <__ctors_end>:
  a0:	11 24       	eor	r1, r1
  a2:	1f be       	out	0x3f, r1	; 63
  a4:	cf ef       	ldi	r28, 0xFF	; 255
  a6:	cd bf       	out	0x3d, r28	; 61
  a8:	df e3       	ldi	r29, 0x3F	; 63
  aa:	de bf       	out	0x3e, r29	; 62
  ac:	0e 94 5c 00 	call	0xb8	; 0xb8 <main>
  b0:	0c 94 7f 00 	jmp	0xfe	; 0xfe <_exit>

000000b4 <__bad_interrupt>:
  b4:	0c 94 00 00 	jmp	0	; 0x0 <__vectors>

000000b8 <main>:
  b8:	2f e9       	ldi	r18, 0x9F	; 159
  ba:	36 e8       	ldi	r19, 0x86	; 134
  bc:	81 e0       	ldi	r24, 0x01	; 1
  be:	21 50       	subi	r18, 0x01	; 1
  c0:	30 40       	sbci	r19, 0x00	; 0
  c2:	80 40       	sbci	r24, 0x00	; 0
  c4:	e1 f7       	brne	.-8      	; 0xbe <main+0x6>
  c6:	00 c0       	rjmp	.+0      	; 0xc8 <main+0x10>
  c8:	00 00       	nop
  ca:	80 e2       	ldi	r24, 0x20	; 32
  cc:	80 93 a6 04 	sts	0x04A6, r24	; 0x8004a6 <__TEXT_REGION_LENGTH__+0x7f44a6>
  d0:	80 93 a1 04 	sts	0x04A1, r24	; 0x8004a1 <__TEXT_REGION_LENGTH__+0x7f44a1>
  d4:	9f e1       	ldi	r25, 0x1F	; 31
  d6:	21 ea       	ldi	r18, 0xA1	; 161
  d8:	37 e0       	ldi	r19, 0x07	; 7
  da:	91 50       	subi	r25, 0x01	; 1
  dc:	20 40       	sbci	r18, 0x00	; 0
  de:	30 40       	sbci	r19, 0x00	; 0
  e0:	e1 f7       	brne	.-8      	; 0xda <main+0x22>
  e2:	00 c0       	rjmp	.+0      	; 0xe4 <main+0x2c>
  e4:	00 00       	nop
  e6:	80 93 a2 04 	sts	0x04A2, r24	; 0x8004a2 <__TEXT_REGION_LENGTH__+0x7f44a2>
  ea:	9f e9       	ldi	r25, 0x9F	; 159
  ec:	26 e8       	ldi	r18, 0x86	; 134
  ee:	31 e0       	ldi	r19, 0x01	; 1
  f0:	91 50       	subi	r25, 0x01	; 1
  f2:	20 40       	sbci	r18, 0x00	; 0
  f4:	30 40       	sbci	r19, 0x00	; 0
  f6:	e1 f7       	brne	.-8      	; 0xf0 <main+0x38>
  f8:	00 c0       	rjmp	.+0      	; 0xfa <main+0x42>
  fa:	00 00       	nop
  fc:	e9 cf       	rjmp	.-46     	; 0xd0 <main+0x18>

000000fe <_exit>:
  fe:	f8 94       	cli

00000100 <__stop_program>:
 100:	ff cf       	rjmp	.-2      	; 0x100 <__stop_program>
